target datalayout = "e-m:e-p270:32:32-p271:32:32-p272:64:64-i64:64-i128:128-f80:128-n8:16:32:64-S128"
target triple = "x86_64-unknown-linux-gnu"

%"class.icu_75::Normalizer2DataBuilder" = type <{ %"class.icu_75::Norms", i32, i32, i32, [20 x i32], [4 x i8], ptr, i32, [4 x i8], %"class.icu_75::UnicodeString", [256 x i8], [4 x i8], [4 x i8] }>
%"class.icu_75::Norms" = type { %"class.icu_75::UnicodeSet", %"class.icu_75::UnicodeSet", ptr, ptr, ptr }
%"class.icu_75::UnicodeSet" = type <{ %"class.icu_75::UnicodeFilter", ptr, i32, i32, i8, [7 x i8], ptr, ptr, i32, [4 x i8], ptr, i32, [4 x i8], ptr, ptr, [25 x i32], [4 x i8] }>
%"class.icu_75::UnicodeFilter" = type { %"class.icu_75::UnicodeFunctor", %"class.icu_75::UnicodeMatcher" }
%"class.icu_75::UnicodeFunctor" = type { %"class.icu_75::UObject" }
%"class.icu_75::UObject" = type { ptr }
%"class.icu_75::UnicodeMatcher" = type { ptr }
%"class.icu_75::UnicodeString" = type { %"class.icu_75::Replaceable", %"union.icu_75::UnicodeString::StackBufferOrFields" }
%"class.icu_75::Replaceable" = type { %"class.icu_75::UObject" }
%"union.icu_75::UnicodeString::StackBufferOrFields" = type { %struct.anon.0, [32 x i8] }
%struct.anon.0 = type { i16, i32, i32, ptr }

; Function Attrs: mustprogress nounwind uwtable
define dso_local void @_ZN6icu_7522Normalizer2DataBuilderD2Ev(ptr noundef nonnull align 8 dereferenceable(860) %this) unnamed_addr #0 align 2 {
entry:
  %this.addr = alloca ptr, align 8
  store ptr %this, ptr %this.addr, align 8
  %this1 = load ptr, ptr %this.addr, align 8
  %norm16TrieBytes = getelementptr inbounds %"class.icu_75::Normalizer2DataBuilder", ptr %this1, i32 0, i32 6
  %0 = load ptr, ptr %norm16TrieBytes, align 8
  %isnull = icmp eq ptr %0, null
  br i1 %isnull, label %delete.end, label %delete.notnull

delete.notnull:                                   ; preds = %entry
  call void @_ZdaPv(ptr noundef %0) #15
  br label %delete.end

delete.end:                                       ; preds = %delete.notnull, %entry
  %extraData = getelementptr inbounds %"class.icu_75::Normalizer2DataBuilder", ptr %this1, i32 0, i32 9
  call void @_ZN6icu_7513UnicodeStringD1Ev(ptr noundef nonnull align 8 dereferenceable(64) %extraData) #12
  %norms = getelementptr inbounds %"class.icu_75::Normalizer2DataBuilder", ptr %this1, i32 0, i32 0
  call void @_ZN6icu_755NormsD1Ev(ptr noundef nonnull align 8 dereferenceable(424) %norms) #12
  ret void
}