; Function Attrs: mustprogress nounwind uwtable
define dso_local void @_ZN6icu_7522Normalizer2DataBuilderD2Ev(ptr noundef nonnull align 8 dereferenceable(860) %this) unnamed_addr #0 align 2 {
entry:
  %norm16TrieBytes = getelementptr inbounds i8, ptr %this, i64 520
  %0 = load ptr, ptr %norm16TrieBytes, align 8
  %isnull = icmp eq ptr %0, null
  br i1 %isnull, label %delete.end, label %delete.notnull

delete.notnull:                                   ; preds = %entry
  tail call void @_ZdaPv(ptr noundef nonnull %0) #20
  br label %delete.end

delete.end:                                       ; preds = %delete.notnull, %entry
  %extraData = getelementptr inbounds i8, ptr %this, i64 536
  tail call void @_ZN6icu_7513UnicodeStringD1Ev(ptr noundef nonnull align 8 dereferenceable(64) %extraData) #17
  tail call void @_ZN6icu_755NormsD1Ev(ptr noundef nonnull align 8 dereferenceable(424) %this) #17
  ret void
}